; Function Attrs: mustprogress uwtable
define noundef double @_ZNK8QuantLib26ZeroInflationTermStructure8zeroRateEdb(ptr noundef nonnull align 8 dereferenceable(113) %this, double noundef %t, i1 noundef zeroext %extrapolate) local_unnamed_addr #3 align 2 {
entry:
  tail call void @_ZNK8QuantLib22InflationTermStructure10checkRangeEdb(ptr noundef nonnull align 8 dereferenceable(113) %this, double noundef %t, i1 noundef zeroext %extrapolate)
  %vtable = load ptr, ptr %this, align 8, !tbaa !14
  %vfn = getelementptr inbounds i8, ptr %vtable, i64 112
  %0 = load ptr, ptr %vfn, align 8
  %call = tail call noundef double %0(ptr noundef nonnull align 8 dereferenceable(113) %this, double noundef %t)
  ret double %call
}